target datalayout = "e-m:e-p270:32:32-p271:32:32-p272:64:64-i64:64-i128:128-f80:128-n8:16:32:64-S128"
target triple = "x86_64-pc-linux-gnu"

%struct.ForEachState = type { ptr, i32 }
%struct.List = type { i32, i32, i32, ptr, [0 x %union.ListCell] }
%union.ListCell = type { ptr }
%struct.nameData = type { [64 x i8] }
%struct.catclist = type { i32, i32, %struct.dlist_node, [4 x i64], i32, i8, i8, i16, i32, ptr, [0 x ptr] }
%struct.dlist_node = type { ptr, ptr }
%struct.catctup = type { i32, i32, [4 x i64], %struct.dlist_node, i32, i8, i8, %struct.HeapTupleData, ptr, ptr }
%struct.HeapTupleData = type { i32, %struct.ItemPointerData, i32, ptr }
%struct.ItemPointerData = type { %struct.BlockIdData, i16 }
%struct.BlockIdData = type { i16, i16 }
%struct.HeapTupleHeaderData = type { %union.anon, %struct.ItemPointerData, i16, i16, i8, [0 x i8] }
%union.anon = type { %struct.HeapTupleFields }
%struct.HeapTupleFields = type { i32, i32, %union.anon.0 }
%union.anon.0 = type { i32 }
%struct.FormData_pg_operator = type { i32, %struct.nameData, i32, i32, i8, i8, i8, i32, i32, i32, i32, i32, i32, i32, i32 }

@myTempNamespace = internal global i32 0, align 4
@activeSearchPath = internal global ptr null, align 8

; Function Attrs: inlinehint nounwind uwtable
define internal i64 @PointerGetDatum(ptr noundef %0) #7 {
  %2 = alloca ptr, align 8
  store ptr %0, ptr %2, align 8
  %3 = load ptr, ptr %2, align 8
  %4 = ptrtoint ptr %3 to i64
  ret i64 %4
}

; Function Attrs: inlinehint nounwind uwtable
define internal ptr @GETSTRUCT(ptr noundef %0) #7 {
  %2 = alloca ptr, align 8
  store ptr %0, ptr %2, align 8
  %3 = load ptr, ptr %2, align 8
  %4 = getelementptr inbounds nuw %struct.HeapTupleData, ptr %3, i32 0, i32 3
  %5 = load ptr, ptr %4, align 8
  %6 = load ptr, ptr %2, align 8
  %7 = getelementptr inbounds nuw %struct.HeapTupleData, ptr %6, i32 0, i32 3
  %8 = load ptr, ptr %7, align 8
  %9 = getelementptr inbounds nuw %struct.HeapTupleHeaderData, ptr %8, i32 0, i32 4
  %10 = load i8, ptr %9, align 2
  %11 = zext i8 %10 to i32
  %12 = sext i32 %11 to i64
  %13 = getelementptr inbounds i8, ptr %5, i64 %12
  ret ptr %13
}

; Function Attrs: inlinehint nounwind uwtable
define internal i64 @ObjectIdGetDatum(i32 noundef %0) #7 {
  %2 = alloca i32, align 4
  store i32 %0, ptr %2, align 4
  %3 = load i32, ptr %2, align 4
  %4 = zext i32 %3 to i64
  ret i64 %4
}

; Function Attrs: inlinehint nounwind uwtable
define internal i64 @CStringGetDatum(ptr noundef %0) #7 {
  %2 = alloca ptr, align 8
  store ptr %0, ptr %2, align 8
  %3 = load ptr, ptr %2, align 8
  %4 = call i64 @PointerGetDatum(ptr noundef %3)
  ret i64 %4
}

; Function Attrs: nounwind uwtable
define dso_local i32 @OpernameGetOprid(ptr noundef %0, i32 noundef %1, i32 noundef %2) #0 {
  %4 = alloca i32, align 4
  %5 = alloca ptr, align 8
  %6 = alloca i32, align 4
  %7 = alloca i32, align 4
  %8 = alloca ptr, align 8
  %9 = alloca ptr, align 8
  %10 = alloca ptr, align 8
  %11 = alloca ptr, align 8
  %12 = alloca i32, align 4
  %13 = alloca ptr, align 8
  %14 = alloca ptr, align 8
  %15 = alloca i32, align 4
  %16 = alloca i32, align 4
  %17 = alloca %struct.ForEachState, align 8
  %18 = alloca i32, align 4
  %19 = alloca i32, align 4
  %20 = alloca ptr, align 8
  %21 = alloca ptr, align 8
  %22 = alloca i32, align 4
  store ptr %0, ptr %5, align 8
  store i32 %1, ptr %6, align 4
  store i32 %2, ptr %7, align 4
  call void @llvm.lifetime.start.p0(i64 8, ptr %8) #14
  call void @llvm.lifetime.start.p0(i64 8, ptr %9) #14
  call void @llvm.lifetime.start.p0(i64 8, ptr %10) #14
  call void @llvm.lifetime.start.p0(i64 8, ptr %11) #14
  %23 = load ptr, ptr %5, align 8
  call void @DeconstructQualifiedName(ptr noundef %23, ptr noundef %8, ptr noundef %9)
  %24 = load ptr, ptr %8, align 8
  %25 = icmp ne ptr %24, null
  br i1 %25, label %26, label %57

26:                                               ; preds = %3
  call void @llvm.lifetime.start.p0(i64 4, ptr %12) #14
  %27 = load ptr, ptr %8, align 8
  %28 = call i32 @LookupExplicitNamespace(ptr noundef %27, i1 noundef zeroext true)
  store i32 %28, ptr %12, align 4
  %29 = load i32, ptr %12, align 4
  %30 = icmp ne i32 %29, 0
  br i1 %30, label %31, label %55

31:                                               ; preds = %26
  call void @llvm.lifetime.start.p0(i64 8, ptr %13) #14
  %32 = load ptr, ptr %9, align 8
  %33 = call i64 @CStringGetDatum(ptr noundef %32)
  %34 = load i32, ptr %6, align 4
  %35 = call i64 @ObjectIdGetDatum(i32 noundef %34)
  %36 = load i32, ptr %7, align 4
  %37 = call i64 @ObjectIdGetDatum(i32 noundef %36)
  %38 = load i32, ptr %12, align 4
  %39 = call i64 @ObjectIdGetDatum(i32 noundef %38)
  %40 = call ptr @SearchSysCache4(i32 noundef 39, i64 noundef %33, i64 noundef %35, i64 noundef %37, i64 noundef %39)
  store ptr %40, ptr %13, align 8
  %41 = load ptr, ptr %13, align 8
  %42 = icmp ne ptr %41, null
  br i1 %42, label %43, label %51

43:                                               ; preds = %31
  call void @llvm.lifetime.start.p0(i64 8, ptr %14) #14
  %44 = load ptr, ptr %13, align 8
  %45 = call ptr @GETSTRUCT(ptr noundef %44)
  store ptr %45, ptr %14, align 8
  call void @llvm.lifetime.start.p0(i64 4, ptr %15) #14
  %46 = load ptr, ptr %14, align 8
  %47 = getelementptr inbounds nuw %struct.FormData_pg_operator, ptr %46, i32 0, i32 0
  %48 = load i32, ptr %47, align 4
  store i32 %48, ptr %15, align 4
  %49 = load ptr, ptr %13, align 8
  call void @ReleaseSysCache(ptr noundef %49)
  %50 = load i32, ptr %15, align 4
  store i32 %50, ptr %4, align 4
  store i32 1, ptr %16, align 4
  call void @llvm.lifetime.end.p0(i64 4, ptr %15) #14
  call void @llvm.lifetime.end.p0(i64 8, ptr %14) #14
  br label %52

51:                                               ; preds = %31
  store i32 0, ptr %16, align 4
  br label %52

52:                                               ; preds = %51, %43
  call void @llvm.lifetime.end.p0(i64 8, ptr %13) #14
  %53 = load i32, ptr %16, align 4
  switch i32 %53, label %56 [
    i32 0, label %54
  ]

54:                                               ; preds = %52
  br label %55

55:                                               ; preds = %54, %26
  store i32 0, ptr %4, align 4
  store i32 1, ptr %16, align 4
  br label %56

56:                                               ; preds = %55, %52
  call void @llvm.lifetime.end.p0(i64 4, ptr %12) #14
  br label %156

57:                                               ; preds = %3
  %58 = load ptr, ptr %9, align 8
  %59 = call i64 @CStringGetDatum(ptr noundef %58)
  %60 = load i32, ptr %6, align 4
  %61 = call i64 @ObjectIdGetDatum(i32 noundef %60)
  %62 = load i32, ptr %7, align 4
  %63 = call i64 @ObjectIdGetDatum(i32 noundef %62)
  %64 = call ptr @SearchSysCacheList(i32 noundef 39, i32 noundef 3, i64 noundef %59, i64 noundef %61, i64 noundef %63)
  store ptr %64, ptr %10, align 8
  %65 = load ptr, ptr %10, align 8
  %66 = getelementptr inbounds nuw %struct.catclist, ptr %65, i32 0, i32 8
  %67 = load i32, ptr %66, align 8
  %68 = icmp eq i32 %67, 0
  br i1 %68, label %69, label %71

69:                                               ; preds = %57
  %70 = load ptr, ptr %10, align 8
  call void @ReleaseCatCacheList(ptr noundef %70)
  store i32 0, ptr %4, align 4
  store i32 1, ptr %16, align 4
  br label %156

71:                                               ; preds = %57
  call void @recomputeNamespacePath()
  call void @llvm.lifetime.start.p0(i64 16, ptr %17) #14
  %72 = getelementptr inbounds nuw %struct.ForEachState, ptr %17, i32 0, i32 0
  %73 = load ptr, ptr @activeSearchPath, align 8
  store ptr %73, ptr %72, align 8
  %74 = getelementptr inbounds nuw %struct.ForEachState, ptr %17, i32 0, i32 1
  store i32 0, ptr %74, align 8
  %75 = getelementptr i8, ptr %17, i64 12
  call void @llvm.memset.p0.i64(ptr align 4 %75, i8 0, i64 4, i1 false)
  br label %76

76:                                               ; preds = %148, %71
  %77 = getelementptr inbounds nuw %struct.ForEachState, ptr %17, i32 0, i32 0
  %78 = load ptr, ptr %77, align 8
  %79 = icmp ne ptr %78, null
  br i1 %79, label %80, label %97

80:                                               ; preds = %76
  %81 = getelementptr inbounds nuw %struct.ForEachState, ptr %17, i32 0, i32 1
  %82 = load i32, ptr %81, align 8
  %83 = getelementptr inbounds nuw %struct.ForEachState, ptr %17, i32 0, i32 0
  %84 = load ptr, ptr %83, align 8
  %85 = getelementptr inbounds nuw %struct.List, ptr %84, i32 0, i32 1
  %86 = load i32, ptr %85, align 4
  %87 = icmp slt i32 %82, %86
  br i1 %87, label %88, label %97

88:                                               ; preds = %80
  %89 = getelementptr inbounds nuw %struct.ForEachState, ptr %17, i32 0, i32 0
  %90 = load ptr, ptr %89, align 8
  %91 = getelementptr inbounds nuw %struct.List, ptr %90, i32 0, i32 3
  %92 = load ptr, ptr %91, align 8
  %93 = getelementptr inbounds nuw %struct.ForEachState, ptr %17, i32 0, i32 1
  %94 = load i32, ptr %93, align 8
  %95 = sext i32 %94 to i64
  %96 = getelementptr inbounds %union.ListCell, ptr %92, i64 %95
  store ptr %96, ptr %11, align 8
  br label %98

97:                                               ; preds = %80, %76
  store ptr null, ptr %11, align 8
  br label %98

98:                                               ; preds = %97, %88
  %99 = phi i32 [ 1, %88 ], [ 0, %97 ]
  %100 = icmp ne i32 %99, 0
  br i1 %100, label %102, label %101

101:                                              ; preds = %98
  store i32 2, ptr %16, align 4
  br label %152

102:                                              ; preds = %98
  call void @llvm.lifetime.start.p0(i64 4, ptr %18) #14
  %103 = load ptr, ptr %11, align 8
  %104 = load i32, ptr %103, align 8
  store i32 %104, ptr %18, align 4
  call void @llvm.lifetime.start.p0(i64 4, ptr %19) #14
  %105 = load i32, ptr %18, align 4
  %106 = load i32, ptr @myTempNamespace, align 4
  %107 = icmp eq i32 %105, %106
  br i1 %107, label %108, label %109

108:                                              ; preds = %102
  store i32 4, ptr %16, align 4
  br label %145

109:                                              ; preds = %102
  store i32 0, ptr %19, align 4
  br label %110

110:                                              ; preds = %141, %109
  %111 = load i32, ptr %19, align 4
  %112 = load ptr, ptr %10, align 8
  %113 = getelementptr inbounds nuw %struct.catclist, ptr %112, i32 0, i32 8
  %114 = load i32, ptr %113, align 8
  %115 = icmp slt i32 %111, %114
  br i1 %115, label %116, label %144

116:                                              ; preds = %110
  call void @llvm.lifetime.start.p0(i64 8, ptr %20) #14
  %117 = load ptr, ptr %10, align 8
  %118 = getelementptr inbounds nuw %struct.catclist, ptr %117, i32 0, i32 10
  %119 = load i32, ptr %19, align 4
  %120 = sext i32 %119 to i64
  %121 = getelementptr inbounds [0 x ptr], ptr %118, i64 0, i64 %120
  %122 = load ptr, ptr %121, align 8
  %123 = getelementptr inbounds nuw %struct.catctup, ptr %122, i32 0, i32 7
  store ptr %123, ptr %20, align 8
  call void @llvm.lifetime.start.p0(i64 8, ptr %21) #14
  %124 = load ptr, ptr %20, align 8
  %125 = call ptr @GETSTRUCT(ptr noundef %124)
  store ptr %125, ptr %21, align 8
  %126 = load ptr, ptr %21, align 8
  %127 = getelementptr inbounds nuw %struct.FormData_pg_operator, ptr %126, i32 0, i32 2
  %128 = load i32, ptr %127, align 4
  %129 = load i32, ptr %18, align 4
  %130 = icmp eq i32 %128, %129
  br i1 %130, label %131, label %137

131:                                              ; preds = %116
  call void @llvm.lifetime.start.p0(i64 4, ptr %22) #14
  %132 = load ptr, ptr %21, align 8
  %133 = getelementptr inbounds nuw %struct.FormData_pg_operator, ptr %132, i32 0, i32 0
  %134 = load i32, ptr %133, align 4
  store i32 %134, ptr %22, align 4
  %135 = load ptr, ptr %10, align 8
  call void @ReleaseCatCacheList(ptr noundef %135)
  %136 = load i32, ptr %22, align 4
  store i32 %136, ptr %4, align 4
  store i32 1, ptr %16, align 4
  call void @llvm.lifetime.end.p0(i64 4, ptr %22) #14
  br label %138

137:                                              ; preds = %116
  store i32 0, ptr %16, align 4
  br label %138

138:                                              ; preds = %137, %131
  call void @llvm.lifetime.end.p0(i64 8, ptr %21) #14
  call void @llvm.lifetime.end.p0(i64 8, ptr %20) #14
  %139 = load i32, ptr %16, align 4
  switch i32 %139, label %145 [
    i32 0, label %140
  ]

140:                                              ; preds = %138
  br label %141

141:                                              ; preds = %140
  %142 = load i32, ptr %19, align 4
  %143 = add i32 %142, 1
  store i32 %143, ptr %19, align 4
  br label %110, !llvm.loop !22

144:                                              ; preds = %110
  store i32 0, ptr %16, align 4
  br label %145

145:                                              ; preds = %144, %138, %108
  call void @llvm.lifetime.end.p0(i64 4, ptr %19) #14
  call void @llvm.lifetime.end.p0(i64 4, ptr %18) #14
  %146 = load i32, ptr %16, align 4
  switch i32 %146, label %152 [
    i32 0, label %147
    i32 4, label %148
  ]

147:                                              ; preds = %145
  br label %148

148:                                              ; preds = %147, %145
  %149 = getelementptr inbounds nuw %struct.ForEachState, ptr %17, i32 0, i32 1
  %150 = load i32, ptr %149, align 8
  %151 = add i32 %150, 1
  store i32 %151, ptr %149, align 8
  br label %76, !llvm.loop !23

152:                                              ; preds = %145, %101
  call void @llvm.lifetime.end.p0(i64 16, ptr %17) #14
  %153 = load i32, ptr %16, align 4
  switch i32 %153, label %156 [
    i32 2, label %154
  ]

154:                                              ; preds = %152
  %155 = load ptr, ptr %10, align 8
  call void @ReleaseCatCacheList(ptr noundef %155)
  store i32 0, ptr %4, align 4
  store i32 1, ptr %16, align 4
  br label %156

156:                                              ; preds = %154, %152, %69, %56
  call void @llvm.lifetime.end.p0(i64 8, ptr %11) #14
  call void @llvm.lifetime.end.p0(i64 8, ptr %10) #14
  call void @llvm.lifetime.end.p0(i64 8, ptr %9) #14
  call void @llvm.lifetime.end.p0(i64 8, ptr %8) #14
  %157 = load i32, ptr %4, align 4
  ret i32 %157
}