; Function Attrs: nounwind uwtable
define dso_local i32 @OpernameGetOprid(ptr noundef captures(address_is_null) %0, i32 noundef %1, i32 noundef %2) local_unnamed_addr #0 {
  %4 = alloca ptr, align 8
  %5 = alloca ptr, align 8
  call void @llvm.lifetime.start.p0(i64 8, ptr nonnull %4) #19
  call void @llvm.lifetime.start.p0(i64 8, ptr nonnull %5) #19
  call void @DeconstructQualifiedName(ptr noundef %0, ptr noundef nonnull %4, ptr noundef nonnull %5)
  %6 = load ptr, ptr %4, align 8
  %.not = icmp eq ptr %6, null
  br i1 %.not, label %23, label %7

7:                                                ; preds = %3
  %8 = tail call i32 @LookupExplicitNamespace(ptr noundef nonnull %6, i1 noundef zeroext true)
  %.not52 = icmp eq i32 %8, 0
  br i1 %.not52, label %.thread, label %9

9:                                                ; preds = %7
  %10 = load ptr, ptr %5, align 8
  %11 = ptrtoint ptr %10 to i64
  %12 = zext i32 %1 to i64
  %13 = zext i32 %2 to i64
  %14 = zext i32 %8 to i64
  %15 = tail call ptr @SearchSysCache4(i32 noundef 39, i64 noundef %11, i64 noundef %12, i64 noundef %13, i64 noundef %14) #19
  %.not53 = icmp eq ptr %15, null
  br i1 %.not53, label %.thread, label %16

16:                                               ; preds = %9
  %17 = getelementptr i8, ptr %15, i64 16
  %.val54 = load ptr, ptr %17, align 8
  %18 = getelementptr inbounds nuw i8, ptr %.val54, i64 22
  %19 = load i8, ptr %18, align 2
  %20 = zext i8 %19 to i64
  %21 = getelementptr inbounds nuw i8, ptr %.val54, i64 %20
  %22 = load i32, ptr %21, align 4
  tail call void @ReleaseSysCache(ptr noundef nonnull %15) #19
  br label %.thread

23:                                               ; preds = %3
  %24 = load ptr, ptr %5, align 8
  %25 = ptrtoint ptr %24 to i64
  %26 = zext i32 %1 to i64
  %27 = zext i32 %2 to i64
  %28 = tail call ptr @SearchSysCacheList(i32 noundef 39, i32 noundef 3, i64 noundef %25, i64 noundef %26, i64 noundef %27) #19
  %29 = getelementptr inbounds nuw i8, ptr %28, i64 64
  %30 = load i32, ptr %29, align 8
  %31 = icmp eq i32 %30, 0
  br i1 %31, label %32, label %33

32:                                               ; preds = %23
  tail call void @ReleaseCatCacheList(ptr noundef nonnull %28) #19
  br label %.thread

33:                                               ; preds = %23
  tail call fastcc void @recomputeNamespacePath()
  %34 = load ptr, ptr @activeSearchPath, align 8
  %.not49 = icmp eq ptr %34, null
  br i1 %.not49, label %._crit_edge, label %.lr.ph72

.lr.ph72:                                         ; preds = %33
  %35 = getelementptr inbounds nuw i8, ptr %34, i64 4
  %36 = load i32, ptr %35, align 4
  %37 = load i32, ptr @myTempNamespace, align 4
  %38 = getelementptr inbounds nuw i8, ptr %28, i64 80
  %39 = icmp sgt i32 %36, 0
  br i1 %39, label %.lr.ph75, label %._crit_edge

.lr.ph75:                                         ; preds = %.lr.ph72
  %40 = getelementptr inbounds nuw i8, ptr %34, i64 16
  %41 = load ptr, ptr %40, align 8
  %wide.trip.count81 = zext nneg i32 %36 to i64
  br label %42

42:                                               ; preds = %.lr.ph75, %.loopexit
  %indvars.iv78 = phi i64 [ 0, %.lr.ph75 ], [ %indvars.iv.next79, %.loopexit ]
  %43 = getelementptr inbounds nuw %union.ListCell, ptr %41, i64 %indvars.iv78
  %44 = load i32, ptr %43, align 8
  %45 = icmp eq i32 %44, %37
  br i1 %45, label %.loopexit, label %.preheader

.preheader:                                       ; preds = %42
  %46 = load i32, ptr %29, align 8
  %47 = icmp sgt i32 %46, 0
  br i1 %47, label %.lr.ph.preheader, label %.loopexit

.lr.ph.preheader:                                 ; preds = %.preheader
  %wide.trip.count = zext nneg i32 %46 to i64
  br label %.lr.ph

48:                                               ; preds = %.lr.ph
  %indvars.iv.next = add nuw nsw i64 %indvars.iv, 1
  %exitcond.not = icmp eq i64 %indvars.iv.next, %wide.trip.count
  br i1 %exitcond.not, label %.loopexit, label %.lr.ph, !llvm.loop !17

.lr.ph:                                           ; preds = %.lr.ph.preheader, %48
  %indvars.iv = phi i64 [ 0, %.lr.ph.preheader ], [ %indvars.iv.next, %48 ]
  %49 = getelementptr inbounds nuw [0 x ptr], ptr %38, i64 0, i64 %indvars.iv
  %50 = load ptr, ptr %49, align 8
  %51 = getelementptr i8, ptr %50, i64 80
  %.val = load ptr, ptr %51, align 8
  %52 = getelementptr inbounds nuw i8, ptr %.val, i64 22
  %53 = load i8, ptr %52, align 2
  %54 = zext i8 %53 to i64
  %55 = getelementptr inbounds nuw i8, ptr %.val, i64 %54
  %56 = getelementptr inbounds nuw i8, ptr %55, i64 68
  %57 = load i32, ptr %56, align 4
  %.not51 = icmp eq i32 %57, %44
  br i1 %.not51, label %.split.us, label %48

.loopexit:                                        ; preds = %48, %.preheader, %42
  %indvars.iv.next79 = add nuw nsw i64 %indvars.iv78, 1
  %exitcond82.not = icmp eq i64 %indvars.iv.next79, %wide.trip.count81
  br i1 %exitcond82.not, label %._crit_edge, label %42

.split.us:                                        ; preds = %.lr.ph
  %58 = load i32, ptr %55, align 4
  tail call void @ReleaseCatCacheList(ptr noundef nonnull %28) #19
  br label %.thread

._crit_edge:                                      ; preds = %.loopexit, %.lr.ph72, %33
  tail call void @ReleaseCatCacheList(ptr noundef %28) #19
  br label %.thread

.thread:                                          ; preds = %9, %.split.us, %7, %16, %._crit_edge, %32
  %.2 = phi i32 [ 0, %32 ], [ 0, %._crit_edge ], [ %58, %.split.us ], [ %22, %16 ], [ 0, %7 ], [ 0, %9 ]
  call void @llvm.lifetime.end.p0(i64 8, ptr nonnull %5) #19
  call void @llvm.lifetime.end.p0(i64 8, ptr nonnull %4) #19
  ret i32 %.2
}